target datalayout = "e-m:e-p270:32:32-p271:32:32-p272:64:64-i64:64-i128:128-f80:128-n8:16:32:64-S128"
target triple = "x86_64-pc-linux-gnu"

%class.ForeignLambdaTerms = type <{ i32, [4 x i8], ptr, %"class.std::vector", %"class.std::vector.0", i8, [7 x i8] }>
%"class.std::vector" = type { %"struct.std::_Vector_base" }
%"struct.std::_Vector_base" = type { %"struct.std::_Vector_base<double, std::allocator<double>>::_Vector_impl" }
%"struct.std::_Vector_base<double, std::allocator<double>>::_Vector_impl" = type { %"struct.std::_Vector_base<double, std::allocator<double>>::_Vector_impl_data" }
%"struct.std::_Vector_base<double, std::allocator<double>>::_Vector_impl_data" = type { ptr, ptr, ptr }
%"class.std::vector.0" = type { %"struct.std::_Vector_base.1" }
%"struct.std::_Vector_base.1" = type { %"struct.std::_Vector_base<gmx::EnumerationArray<FreeEnergyPerturbationCouplingType, double>, std::allocator<gmx::EnumerationArray<FreeEnergyPerturbationCouplingType, double>>>::_Vector_impl" }
%"struct.std::_Vector_base<gmx::EnumerationArray<FreeEnergyPerturbationCouplingType, double>, std::allocator<gmx::EnumerationArray<FreeEnergyPerturbationCouplingType, double>>>::_Vector_impl" = type { %"struct.std::_Vector_base<gmx::EnumerationArray<FreeEnergyPerturbationCouplingType, double>, std::allocator<gmx::EnumerationArray<FreeEnergyPerturbationCouplingType, double>>>::_Vector_impl_data" }
%"struct.std::_Vector_base<gmx::EnumerationArray<FreeEnergyPerturbationCouplingType, double>, std::allocator<gmx::EnumerationArray<FreeEnergyPerturbationCouplingType, double>>>::_Vector_impl_data" = type { ptr, ptr, ptr }
%"struct.gmx::EnumerationArray.5" = type { [7 x double] }
%"class.gmx::EnumerationWrapper" = type { i8 }
%"class.gmx::EnumerationIterator" = type { i32 }
%struct.gmx_enerdata_t = type { %"struct.std::array", %struct.gmx_grppairener_t, %"struct.gmx::EnumerationArray.5", %"struct.gmx::EnumerationArray.5", %class.ForeignLambdaTerms }
%"struct.std::array" = type { [94 x float] }
%struct.gmx_grppairener_t = type { i32, %"struct.gmx::EnumerationArray.13" }
%"struct.gmx::EnumerationArray.13" = type { [5 x %"class.std::vector.14"] }
%"class.std::vector.14" = type { %"struct.std::_Vector_base.15" }
%"struct.std::_Vector_base.15" = type { %"struct.std::_Vector_base<float, std::allocator<float>>::_Vector_impl" }
%"struct.std::_Vector_base<float, std::allocator<float>>::_Vector_impl" = type { %"struct.std::_Vector_base<float, std::allocator<float>>::_Vector_impl_data" }
%"struct.std::_Vector_base<float, std::allocator<float>>::_Vector_impl_data" = type { ptr, ptr, ptr }
%"class.gmx::ArrayRef.19" = type { %"struct.gmx::ArrayRefIter.20", %"struct.gmx::ArrayRefIter.20" }
%"struct.gmx::ArrayRefIter.20" = type { ptr }

; Function Attrs: mustprogress nounwind uwtable
define linkonce_odr noundef i64 @_ZNK3gmx19EnumerationIteratorI34FreeEnergyPerturbationCouplingTypeLS1_7ELl1EEmiES2_(ptr noundef nonnull align 4 dereferenceable(4) %0, i32 %1) #1 comdat align 2 {
  %3 = alloca %"class.gmx::EnumerationIterator", align 4
  %4 = alloca ptr, align 8
  %5 = getelementptr inbounds %"class.gmx::EnumerationIterator", ptr %3, i32 0, i32 0
  store i32 %1, ptr %5, align 4
  store ptr %0, ptr %4, align 8
  %6 = load ptr, ptr %4, align 8
  %7 = getelementptr inbounds %"class.gmx::EnumerationIterator", ptr %6, i32 0, i32 0
  %8 = load i32, ptr %7, align 4
  %9 = sext i32 %8 to i64
  %10 = getelementptr inbounds %"class.gmx::EnumerationIterator", ptr %3, i32 0, i32 0
  %11 = load i32, ptr %10, align 4
  %12 = sext i32 %11 to i64
  %13 = sub nsw i64 %9, %12
  %14 = sdiv i64 %13, 1
  ret i64 %14
}

; Function Attrs: mustprogress nounwind uwtable
define linkonce_odr noundef i64 @_ZNK3gmx12ArrayRefIterIKfEmiES2_(ptr noundef nonnull align 8 dereferenceable(8) %0, ptr %1) #1 comdat align 2 {
  %3 = alloca %"struct.gmx::ArrayRefIter.20", align 8
  %4 = alloca ptr, align 8
  %5 = getelementptr inbounds %"struct.gmx::ArrayRefIter.20", ptr %3, i32 0, i32 0
  store ptr %1, ptr %5, align 8
  store ptr %0, ptr %4, align 8
  %6 = load ptr, ptr %4, align 8
  %7 = getelementptr inbounds %"struct.gmx::ArrayRefIter.20", ptr %6, i32 0, i32 0
  %8 = load ptr, ptr %7, align 8
  %9 = getelementptr inbounds %"struct.gmx::ArrayRefIter.20", ptr %3, i32 0, i32 0
  %10 = load ptr, ptr %9, align 8
  %11 = ptrtoint ptr %8 to i64
  %12 = ptrtoint ptr %10 to i64
  %13 = sub i64 %11, %12
  %14 = sdiv exact i64 %13, 4
  ret i64 %14
}

; Function Attrs: mustprogress nounwind uwtable
define linkonce_odr noundef ptr @_ZNK3gmx12ArrayRefIterIKfE4dataEv(ptr noundef nonnull align 8 dereferenceable(8) %0) #1 comdat align 2 {
  %2 = alloca ptr, align 8
  store ptr %0, ptr %2, align 8
  %3 = load ptr, ptr %2, align 8
  %4 = getelementptr inbounds %"struct.gmx::ArrayRefIter.20", ptr %3, i32 0, i32 0
  %5 = load ptr, ptr %4, align 8
  ret ptr %5
}

; Function Attrs: mustprogress nounwind uwtable
define linkonce_odr noundef i64 @_ZN3gmx5boost14stl_interfaces6detail11common_diffINS_19EnumerationIteratorI34FreeEnergyPerturbationCouplingTypeLS5_7ELl1EEES6_EEDTmiscNSt11conditionalIXsr3std14is_convertibleIT_T0_EE5valueES9_S8_E4typeEfp_scSB_fp0_ES8_S9_(i32 %0, i32 %1) #1 comdat {
  %3 = alloca %"class.gmx::EnumerationIterator", align 4
  %4 = alloca %"class.gmx::EnumerationIterator", align 4
  %5 = alloca %"class.gmx::EnumerationIterator", align 4
  %6 = alloca %"class.gmx::EnumerationIterator", align 4
  %7 = getelementptr inbounds %"class.gmx::EnumerationIterator", ptr %3, i32 0, i32 0
  store i32 %0, ptr %7, align 4
  %8 = getelementptr inbounds %"class.gmx::EnumerationIterator", ptr %4, i32 0, i32 0
  store i32 %1, ptr %8, align 4
  call void @llvm.memcpy.p0.p0.i64(ptr align 4 %5, ptr align 4 %3, i64 4, i1 false)
  call void @llvm.memcpy.p0.p0.i64(ptr align 4 %6, ptr align 4 %4, i64 4, i1 false)
  %9 = getelementptr inbounds %"class.gmx::EnumerationIterator", ptr %6, i32 0, i32 0
  %10 = load i32, ptr %9, align 4
  %11 = call noundef i64 @_ZNK3gmx19EnumerationIteratorI34FreeEnergyPerturbationCouplingTypeLS1_7ELl1EEmiES2_(ptr noundef nonnull align 4 dereferenceable(4) %5, i32 %10) #12
  ret i64 %11
}

; Function Attrs: mustprogress nounwind uwtable
define linkonce_odr noundef i64 @_ZNK3gmx8ArrayRefIKfE4sizeEv(ptr noundef nonnull align 8 dereferenceable(16) %0) #1 comdat align 2 {
  %2 = alloca ptr, align 8
  %3 = alloca %"struct.gmx::ArrayRefIter.20", align 8
  store ptr %0, ptr %2, align 8
  %4 = load ptr, ptr %2, align 8
  %5 = getelementptr inbounds %"class.gmx::ArrayRef.19", ptr %4, i32 0, i32 1
  %6 = getelementptr inbounds %"class.gmx::ArrayRef.19", ptr %4, i32 0, i32 0
  call void @llvm.memcpy.p0.p0.i64(ptr align 8 %3, ptr align 8 %6, i64 8, i1 false)
  %7 = getelementptr inbounds %"struct.gmx::ArrayRefIter.20", ptr %3, i32 0, i32 0
  %8 = load ptr, ptr %7, align 8
  %9 = call noundef i64 @_ZNK3gmx12ArrayRefIterIKfEmiES2_(ptr noundef nonnull align 8 dereferenceable(8) %5, ptr %8) #12
  ret i64 %9
}

; Function Attrs: mustprogress nounwind uwtable
define linkonce_odr void @_ZN3gmx12ArrayRefIterIKfEC2EPS1_(ptr noundef nonnull align 8 dereferenceable(8) %0, ptr noundef %1) unnamed_addr #1 comdat align 2 {
  %3 = alloca ptr, align 8
  %4 = alloca ptr, align 8
  store ptr %0, ptr %3, align 8
  store ptr %1, ptr %4, align 8
  %5 = load ptr, ptr %3, align 8
  %6 = getelementptr inbounds %"struct.gmx::ArrayRefIter.20", ptr %5, i32 0, i32 0
  %7 = load ptr, ptr %4, align 8
  store ptr %7, ptr %6, align 8
  ret void
}

; Function Attrs: mustprogress nounwind uwtable
define linkonce_odr noundef ptr @_ZNK3gmx8ArrayRefIKfE4dataEv(ptr noundef nonnull align 8 dereferenceable(16) %0) #1 comdat align 2 {
  %2 = alloca ptr, align 8
  store ptr %0, ptr %2, align 8
  %3 = load ptr, ptr %2, align 8
  %4 = getelementptr inbounds %"class.gmx::ArrayRef.19", ptr %3, i32 0, i32 0
  %5 = call noundef ptr @_ZNK3gmx12ArrayRefIterIKfE4dataEv(ptr noundef nonnull align 8 dereferenceable(8) %4) #12
  ret ptr %5
}

; Function Attrs: mustprogress nounwind uwtable
define linkonce_odr noundef nonnull align 4 dereferenceable(4) ptr @_ZN3gmx19EnumerationIteratorI34FreeEnergyPerturbationCouplingTypeLS1_7ELl1EEpLEl(ptr noundef nonnull align 4 dereferenceable(4) %0, i64 noundef %1) #1 comdat align 2 {
  %3 = alloca ptr, align 8
  %4 = alloca i64, align 8
  store ptr %0, ptr %3, align 8
  store i64 %1, ptr %4, align 8
  %5 = load ptr, ptr %3, align 8
  %6 = load i64, ptr %4, align 8
  %7 = mul nsw i64 1, %6
  %8 = getelementptr inbounds %"class.gmx::EnumerationIterator", ptr %5, i32 0, i32 0
  %9 = load i32, ptr %8, align 4
  %10 = sext i32 %9 to i64
  %11 = add nsw i64 %10, %7
  %12 = trunc i64 %11 to i32
  store i32 %12, ptr %8, align 4
  ret ptr %5
}

; Function Attrs: mustprogress nounwind uwtable
define linkonce_odr noundef nonnull align 4 dereferenceable(4) ptr @_ZN3gmx5boost14stl_interfaces2v118iterator_interfaceINS_19EnumerationIteratorI34FreeEnergyPerturbationCouplingTypeLS5_7ELl1EEESt26random_access_iterator_tagS5_RS5_PS5_lvE7derivedEv(ptr noundef nonnull align 1 dereferenceable(1) %0) #1 comdat align 2 {
  %2 = alloca ptr, align 8
  store ptr %0, ptr %2, align 8
  %3 = load ptr, ptr %2, align 8
  ret ptr %3
}

; Function Attrs: mustprogress nounwind uwtable
define linkonce_odr noundef zeroext i1 @_ZN3gmx5boost14stl_interfaces2v1eqINS_19EnumerationIteratorI34FreeEnergyPerturbationCouplingTypeLS5_7ELl1EEES6_vEEDTcmclsr6v1_dtlE16derived_iteratorfp_Eeqclsr6detailE11common_difffp_fp0_ELi0EET_T0_(i32 %0, i32 %1) #1 comdat {
  %3 = alloca %"class.gmx::EnumerationIterator", align 4
  %4 = alloca %"class.gmx::EnumerationIterator", align 4
  %5 = alloca %"class.gmx::EnumerationIterator", align 4
  %6 = alloca %"class.gmx::EnumerationIterator", align 4
  %7 = getelementptr inbounds %"class.gmx::EnumerationIterator", ptr %3, i32 0, i32 0
  store i32 %0, ptr %7, align 4
  %8 = getelementptr inbounds %"class.gmx::EnumerationIterator", ptr %4, i32 0, i32 0
  store i32 %1, ptr %8, align 4
  call void @llvm.memcpy.p0.p0.i64(ptr align 4 %5, ptr align 4 %3, i64 4, i1 false)
  call void @llvm.memcpy.p0.p0.i64(ptr align 4 %6, ptr align 4 %4, i64 4, i1 false)
  %9 = getelementptr inbounds %"class.gmx::EnumerationIterator", ptr %5, i32 0, i32 0
  %10 = load i32, ptr %9, align 4
  %11 = getelementptr inbounds %"class.gmx::EnumerationIterator", ptr %6, i32 0, i32 0
  %12 = load i32, ptr %11, align 4
  %13 = call noundef i64 @_ZN3gmx5boost14stl_interfaces6detail11common_diffINS_19EnumerationIteratorI34FreeEnergyPerturbationCouplingTypeLS5_7ELl1EEES6_EEDTmiscNSt11conditionalIXsr3std14is_convertibleIT_T0_EE5valueES9_S8_E4typeEfp_scSB_fp0_ES8_S9_(i32 %10, i32 %12) #12
  %14 = icmp eq i64 %13, 0
  ret i1 %14
}

; Function Attrs: mustprogress nounwind uwtable
define linkonce_odr void @_ZN3gmx19EnumerationIteratorI34FreeEnergyPerturbationCouplingTypeLS1_7ELl1EEC2ES1_(ptr noundef nonnull align 4 dereferenceable(4) %0, i32 noundef %1) unnamed_addr #1 comdat align 2 {
  %3 = alloca ptr, align 8
  %4 = alloca i32, align 4
  store ptr %0, ptr %3, align 8
  store i32 %1, ptr %4, align 4
  %5 = load ptr, ptr %3, align 8
  %6 = getelementptr inbounds %"class.gmx::EnumerationIterator", ptr %5, i32 0, i32 0
  %7 = load i32, ptr %4, align 4
  store i32 %7, ptr %6, align 4
  ret void
}

; Function Attrs: mustprogress nounwind uwtable
define linkonce_odr void @_ZN3gmx19EnumerationIteratorI34FreeEnergyPerturbationCouplingTypeLS1_7ELl1EEC2Ev(ptr noundef nonnull align 4 dereferenceable(4) %0) unnamed_addr #1 comdat align 2 {
  %2 = alloca ptr, align 8
  store ptr %0, ptr %2, align 8
  %3 = load ptr, ptr %2, align 8
  %4 = getelementptr inbounds %"class.gmx::EnumerationIterator", ptr %3, i32 0, i32 0
  store i32 0, ptr %4, align 4
  ret void
}

; Function Attrs: mustprogress nounwind uwtable
define linkonce_odr noundef nonnull align 4 dereferenceable(4) ptr @_ZNSt14__array_traitsIfLm94EE6_S_refERA94_Kfm(ptr noundef nonnull align 4 dereferenceable(376) %0, i64 noundef %1) #1 comdat align 2 {
  %3 = alloca ptr, align 8
  %4 = alloca i64, align 8
  store ptr %0, ptr %3, align 8
  store i64 %1, ptr %4, align 8
  %5 = load ptr, ptr %3, align 8
  %6 = load i64, ptr %4, align 8
  %7 = getelementptr inbounds [94 x float], ptr %5, i64 0, i64 %6
  ret ptr %7
}

; Function Attrs: mustprogress nounwind uwtable
define linkonce_odr noundef ptr @_ZNSt14__array_traitsIfLm94EE6_S_ptrERA94_Kf(ptr noundef nonnull align 4 dereferenceable(376) %0) #1 comdat align 2 {
  %2 = alloca ptr, align 8
  store ptr %0, ptr %2, align 8
  %3 = load ptr, ptr %2, align 8
  %4 = getelementptr inbounds [94 x float], ptr %3, i64 0, i64 0
  ret ptr %4
}

; Function Attrs: mustprogress uwtable
define linkonce_odr void @_ZN3gmx8ArrayRefIKfEC2IRS2_vEEOT_(ptr noundef nonnull align 8 dereferenceable(16) %0, ptr noundef nonnull align 8 dereferenceable(16) %1) unnamed_addr #0 comdat align 2 {
  %3 = alloca ptr, align 8
  %4 = alloca ptr, align 8
  store ptr %0, ptr %3, align 8
  store ptr %1, ptr %4, align 8
  %5 = load ptr, ptr %3, align 8
  %6 = getelementptr inbounds %"class.gmx::ArrayRef.19", ptr %5, i32 0, i32 0
  %7 = load ptr, ptr %4, align 8
  %8 = call noundef ptr @_ZNK3gmx8ArrayRefIKfE4dataEv(ptr noundef nonnull align 8 dereferenceable(16) %7)
  call void @_ZN3gmx12ArrayRefIterIKfEC2EPS1_(ptr noundef nonnull align 8 dereferenceable(8) %6, ptr noundef %8) #12
  %9 = getelementptr inbounds %"class.gmx::ArrayRef.19", ptr %5, i32 0, i32 1
  %10 = load ptr, ptr %4, align 8
  %11 = call noundef ptr @_ZNK3gmx8ArrayRefIKfE4dataEv(ptr noundef nonnull align 8 dereferenceable(16) %10)
  %12 = load ptr, ptr %4, align 8
  %13 = call noundef i64 @_ZNK3gmx8ArrayRefIKfE4sizeEv(ptr noundef nonnull align 8 dereferenceable(16) %12)
  %14 = getelementptr inbounds float, ptr %11, i64 %13
  call void @_ZN3gmx12ArrayRefIterIKfEC2EPS1_(ptr noundef nonnull align 8 dereferenceable(8) %9, ptr noundef %14) #12
  ret void
}

; Function Attrs: mustprogress nounwind uwtable
define linkonce_odr noundef nonnull align 4 dereferenceable(4) ptr @_ZN3gmx5boost14stl_interfaces2v118iterator_interfaceINS_19EnumerationIteratorI34FreeEnergyPerturbationCouplingTypeLS5_7ELl1EEESt26random_access_iterator_tagS5_RS5_PS5_lvEppIS6_EEDTcmpLclsr3stdE7declvalIRT_EEcvlLi1Eclsr3stdE7declvalISD_EEEv(ptr noundef nonnull align 1 dereferenceable(1) %0) #1 comdat align 2 {
  %2 = alloca ptr, align 8
  store ptr %0, ptr %2, align 8
  %3 = load ptr, ptr %2, align 8
  %4 = call noundef nonnull align 4 dereferenceable(4) ptr @_ZN3gmx5boost14stl_interfaces2v118iterator_interfaceINS_19EnumerationIteratorI34FreeEnergyPerturbationCouplingTypeLS5_7ELl1EEESt26random_access_iterator_tagS5_RS5_PS5_lvE7derivedEv(ptr noundef nonnull align 1 dereferenceable(1) %3) #12
  %5 = call noundef nonnull align 4 dereferenceable(4) ptr @_ZN3gmx19EnumerationIteratorI34FreeEnergyPerturbationCouplingTypeLS1_7ELl1EEpLEl(ptr noundef nonnull align 4 dereferenceable(4) %4, i64 noundef 1) #12
  %6 = call noundef nonnull align 4 dereferenceable(4) ptr @_ZN3gmx5boost14stl_interfaces2v118iterator_interfaceINS_19EnumerationIteratorI34FreeEnergyPerturbationCouplingTypeLS5_7ELl1EEESt26random_access_iterator_tagS5_RS5_PS5_lvE7derivedEv(ptr noundef nonnull align 1 dereferenceable(1) %3) #12
  ret ptr %6
}

; Function Attrs: mustprogress nounwind uwtable
define linkonce_odr noundef i32 @_ZNK3gmx19EnumerationIteratorI34FreeEnergyPerturbationCouplingTypeLS1_7ELl1EEdeEv(ptr noundef nonnull align 4 dereferenceable(4) %0) #1 comdat align 2 {
  %2 = alloca ptr, align 8
  store ptr %0, ptr %2, align 8
  %3 = load ptr, ptr %2, align 8
  %4 = getelementptr inbounds %"class.gmx::EnumerationIterator", ptr %3, i32 0, i32 0
  %5 = load i32, ptr %4, align 4
  ret i32 %5
}

; Function Attrs: mustprogress nounwind uwtable
define linkonce_odr noundef zeroext i1 @_ZN3gmx5boost14stl_interfaces2v1neINS_19EnumerationIteratorI34FreeEnergyPerturbationCouplingTypeLS5_7ELl1EEES6_EEDTcmclsr6v1_dtlE16derived_iteratorfp_Enteqfp_fp0_ET_T0_(i32 %0, i32 %1) #1 comdat {
  %3 = alloca %"class.gmx::EnumerationIterator", align 4
  %4 = alloca %"class.gmx::EnumerationIterator", align 4
  %5 = alloca %"class.gmx::EnumerationIterator", align 4
  %6 = alloca %"class.gmx::EnumerationIterator", align 4
  %7 = getelementptr inbounds %"class.gmx::EnumerationIterator", ptr %3, i32 0, i32 0
  store i32 %0, ptr %7, align 4
  %8 = getelementptr inbounds %"class.gmx::EnumerationIterator", ptr %4, i32 0, i32 0
  store i32 %1, ptr %8, align 4
  call void @llvm.memcpy.p0.p0.i64(ptr align 4 %5, ptr align 4 %3, i64 4, i1 false)
  call void @llvm.memcpy.p0.p0.i64(ptr align 4 %6, ptr align 4 %4, i64 4, i1 false)
  %9 = getelementptr inbounds %"class.gmx::EnumerationIterator", ptr %5, i32 0, i32 0
  %10 = load i32, ptr %9, align 4
  %11 = getelementptr inbounds %"class.gmx::EnumerationIterator", ptr %6, i32 0, i32 0
  %12 = load i32, ptr %11, align 4
  %13 = call noundef zeroext i1 @_ZN3gmx5boost14stl_interfaces2v1eqINS_19EnumerationIteratorI34FreeEnergyPerturbationCouplingTypeLS5_7ELl1EEES6_vEEDTcmclsr6v1_dtlE16derived_iteratorfp_Eeqclsr6detailE11common_difffp_fp0_ELi0EET_T0_(i32 %10, i32 %12) #12
  %14 = xor i1 %13, true
  ret i1 %14
}

; Function Attrs: mustprogress nounwind uwtable
define linkonce_odr i32 @_ZNK3gmx18EnumerationWrapperI34FreeEnergyPerturbationCouplingTypeLS1_7ELj1EE3endEv(ptr noundef nonnull align 1 dereferenceable(1) %0) #1 comdat align 2 {
  %2 = alloca %"class.gmx::EnumerationIterator", align 4
  %3 = alloca ptr, align 8
  store ptr %0, ptr %3, align 8
  call void @_ZN3gmx19EnumerationIteratorI34FreeEnergyPerturbationCouplingTypeLS1_7ELl1EEC2ES1_(ptr noundef nonnull align 4 dereferenceable(4) %2, i32 noundef 7) #12
  %4 = getelementptr inbounds %"class.gmx::EnumerationIterator", ptr %2, i32 0, i32 0
  %5 = load i32, ptr %4, align 4
  ret i32 %5
}

; Function Attrs: mustprogress nounwind uwtable
define linkonce_odr i32 @_ZNK3gmx18EnumerationWrapperI34FreeEnergyPerturbationCouplingTypeLS1_7ELj1EE5beginEv(ptr noundef nonnull align 1 dereferenceable(1) %0) #1 comdat align 2 {
  %2 = alloca %"class.gmx::EnumerationIterator", align 4
  %3 = alloca ptr, align 8
  store ptr %0, ptr %3, align 8
  call void @_ZN3gmx19EnumerationIteratorI34FreeEnergyPerturbationCouplingTypeLS1_7ELl1EEC2Ev(ptr noundef nonnull align 4 dereferenceable(4) %2) #12
  %4 = getelementptr inbounds %"class.gmx::EnumerationIterator", ptr %2, i32 0, i32 0
  %5 = load i32, ptr %4, align 4
  ret i32 %5
}

; Function Attrs: mustprogress nounwind uwtable
define linkonce_odr noundef nonnull align 4 dereferenceable(4) ptr @_ZNSt5arrayIfLm94EEixEm(ptr noundef nonnull align 4 dereferenceable(376) %0, i64 noundef %1) #1 comdat align 2 {
  %3 = alloca ptr, align 8
  %4 = alloca i64, align 8
  store ptr %0, ptr %3, align 8
  store i64 %1, ptr %4, align 8
  %5 = load ptr, ptr %3, align 8
  %6 = getelementptr inbounds %"struct.std::array", ptr %5, i32 0, i32 0
  %7 = load i64, ptr %4, align 8
  %8 = call noundef nonnull align 4 dereferenceable(4) ptr @_ZNSt14__array_traitsIfLm94EE6_S_refERA94_Kfm(ptr noundef nonnull align 4 dereferenceable(376) %6, i64 noundef %7) #12
  ret ptr %8
}

; Function Attrs: mustprogress nounwind willreturn memory(none) uwtable
define linkonce_odr noundef ptr @_ZNSt5arrayIfLm94EE4dataEv(ptr noundef nonnull align 4 dereferenceable(376) %0) #10 comdat align 2 {
  %2 = alloca ptr, align 8
  store ptr %0, ptr %2, align 8
  %3 = load ptr, ptr %2, align 8
  %4 = getelementptr inbounds %"struct.std::array", ptr %3, i32 0, i32 0
  %5 = call noundef ptr @_ZNSt14__array_traitsIfLm94EE6_S_ptrERA94_Kf(ptr noundef nonnull align 4 dereferenceable(376) %4) #12
  ret ptr %5
}

; Function Attrs: mustprogress uwtable
define void @_Z27accumulatePotentialEnergiesP14gmx_enerdata_tN3gmx8ArrayRefIKfEEPK8t_lambda(ptr noundef %0, ptr %1, ptr %2, ptr noundef %3) #0 {
  %5 = alloca %"class.gmx::ArrayRef.19", align 8
  %6 = alloca ptr, align 8
  %7 = alloca ptr, align 8
  %8 = alloca ptr, align 8
  %9 = alloca %"class.gmx::EnumerationWrapper", align 1
  %10 = alloca %"class.gmx::EnumerationIterator", align 4
  %11 = alloca %"class.gmx::EnumerationIterator", align 4
  %12 = alloca %"class.gmx::EnumerationIterator", align 4
  %13 = alloca %"class.gmx::EnumerationIterator", align 4
  %14 = alloca i32, align 4
  %15 = alloca %"class.gmx::ArrayRef.19", align 8
  %16 = getelementptr inbounds { ptr, ptr }, ptr %5, i32 0, i32 0
  store ptr %1, ptr %16, align 8
  %17 = getelementptr inbounds { ptr, ptr }, ptr %5, i32 0, i32 1
  store ptr %2, ptr %17, align 8
  store ptr %0, ptr %6, align 8
  store ptr %3, ptr %7, align 8
  %18 = load ptr, ptr %6, align 8
  %19 = getelementptr inbounds %struct.gmx_enerdata_t, ptr %18, i32 0, i32 1
  %20 = load ptr, ptr %6, align 8
  %21 = getelementptr inbounds %struct.gmx_enerdata_t, ptr %20, i32 0, i32 0
  %22 = call noundef ptr @_ZNSt5arrayIfLm94EE4dataEv(ptr noundef nonnull align 4 dereferenceable(376) %21) #17
  call void @_Z8sum_epotRK17gmx_grppairener_tPf(ptr noundef nonnull align 8 dereferenceable(128) %19, ptr noundef %22)
  %23 = load ptr, ptr %7, align 8
  %24 = icmp ne ptr %23, null
  br i1 %24, label %25, label %62

25:                                               ; preds = %4
  %26 = load ptr, ptr %6, align 8
  %27 = getelementptr inbounds %struct.gmx_enerdata_t, ptr %26, i32 0, i32 0
  %28 = call noundef nonnull align 4 dereferenceable(4) ptr @_ZNSt5arrayIfLm94EEixEm(ptr noundef nonnull align 4 dereferenceable(376) %27, i64 noundef 87) #12
  store float 0.000000e+00, ptr %28, align 4
  store ptr %9, ptr %8, align 8
  %29 = load ptr, ptr %8, align 8
  %30 = call i32 @_ZNK3gmx18EnumerationWrapperI34FreeEnergyPerturbationCouplingTypeLS1_7ELj1EE5beginEv(ptr noundef nonnull align 1 dereferenceable(1) %29)
  %31 = getelementptr inbounds %"class.gmx::EnumerationIterator", ptr %10, i32 0, i32 0
  store i32 %30, ptr %31, align 4
  %32 = load ptr, ptr %8, align 8
  %33 = call i32 @_ZNK3gmx18EnumerationWrapperI34FreeEnergyPerturbationCouplingTypeLS1_7ELj1EE3endEv(ptr noundef nonnull align 1 dereferenceable(1) %32)
  %34 = getelementptr inbounds %"class.gmx::EnumerationIterator", ptr %11, i32 0, i32 0
  store i32 %33, ptr %34, align 4
  br label %35

35:                                               ; preds = %50, %25
  call void @llvm.memcpy.p0.p0.i64(ptr align 4 %12, ptr align 4 %10, i64 4, i1 false)
  call void @llvm.memcpy.p0.p0.i64(ptr align 4 %13, ptr align 4 %11, i64 4, i1 false)
  %36 = getelementptr inbounds %"class.gmx::EnumerationIterator", ptr %12, i32 0, i32 0
  %37 = load i32, ptr %36, align 4
  %38 = getelementptr inbounds %"class.gmx::EnumerationIterator", ptr %13, i32 0, i32 0
  %39 = load i32, ptr %38, align 4
  %40 = call noundef zeroext i1 @_ZN3gmx5boost14stl_interfaces2v1neINS_19EnumerationIteratorI34FreeEnergyPerturbationCouplingTypeLS5_7ELl1EEES6_EEDTcmclsr6v1_dtlE16derived_iteratorfp_Enteqfp_fp0_ET_T0_(i32 %37, i32 %39) #12
  br i1 %40, label %41, label %52

41:                                               ; preds = %35
  %42 = call noundef i32 @_ZNK3gmx19EnumerationIteratorI34FreeEnergyPerturbationCouplingTypeLS1_7ELl1EEdeEv(ptr noundef nonnull align 4 dereferenceable(4) %10) #12
  store i32 %42, ptr %14, align 4
  %43 = load i32, ptr %14, align 4
  %44 = icmp ne i32 %43, 1
  br i1 %44, label %45, label %49

45:                                               ; preds = %41
  %46 = load ptr, ptr %6, align 8
  %47 = load i32, ptr %14, align 4
  %48 = load ptr, ptr %7, align 8
  call void @_ZL15set_dhdl_outputP14gmx_enerdata_t34FreeEnergyPerturbationCouplingTypeRK8t_lambda(ptr noundef %46, i32 noundef %47, ptr noundef nonnull align 8 dereferenceable(288) %48)
  br label %49

49:                                               ; preds = %45, %41
  br label %50

50:                                               ; preds = %49
  %51 = call noundef nonnull align 4 dereferenceable(4) ptr @_ZN3gmx5boost14stl_interfaces2v118iterator_interfaceINS_19EnumerationIteratorI34FreeEnergyPerturbationCouplingTypeLS5_7ELl1EEESt26random_access_iterator_tagS5_RS5_PS5_lvEppIS6_EEDTcmpLclsr3stdE7declvalIRT_EEcvlLi1Eclsr3stdE7declvalISD_EEEv(ptr noundef nonnull align 1 dereferenceable(1) %10) #12
  br label %35

52:                                               ; preds = %35
  %53 = load ptr, ptr %6, align 8
  %54 = getelementptr inbounds %struct.gmx_enerdata_t, ptr %53, i32 0, i32 4
  %55 = load ptr, ptr %6, align 8
  %56 = getelementptr inbounds %struct.gmx_enerdata_t, ptr %55, i32 0, i32 2
  call void @_ZN3gmx8ArrayRefIKfEC2IRS2_vEEOT_(ptr noundef nonnull align 8 dereferenceable(16) %15, ptr noundef nonnull align 8 dereferenceable(16) %5)
  %57 = load ptr, ptr %7, align 8
  %58 = getelementptr inbounds { ptr, ptr }, ptr %15, i32 0, i32 0
  %59 = load ptr, ptr %58, align 8
  %60 = getelementptr inbounds { ptr, ptr }, ptr %15, i32 0, i32 1
  %61 = load ptr, ptr %60, align 8
  call void @_ZN18ForeignLambdaTerms30finalizePotentialContributionsERKN3gmx16EnumerationArrayI34FreeEnergyPerturbationCouplingTypedLS2_7EEENS0_8ArrayRefIKfEERK8t_lambda(ptr noundef nonnull align 8 dereferenceable(65) %54, ptr noundef nonnull align 8 dereferenceable(56) %56, ptr %59, ptr %61, ptr noundef nonnull align 8 dereferenceable(288) %57)
  br label %62

62:                                               ; preds = %52, %4
  ret void
}