; Function Attrs: mustprogress uwtable
define void @_Z27accumulatePotentialEnergiesP14gmx_enerdata_tN3gmx8ArrayRefIKfEEPK8t_lambda(ptr nocapture noundef %0, ptr %1, ptr %2, ptr noundef readonly %3) local_unnamed_addr #0 {
  %5 = getelementptr inbounds i8, ptr %0, i64 376
  tail call void @_Z8sum_epotRK17gmx_grppairener_tPf(ptr noundef nonnull align 8 dereferenceable(128) %5, ptr noundef %0)
  %.not = icmp eq ptr %3, null
  br i1 %.not, label %19, label %6

6:                                                ; preds = %4
  %7 = getelementptr inbounds i8, ptr %0, i64 348
  store float 0.000000e+00, ptr %7, align 4
  br label %8

8:                                                ; preds = %10, %6
  %.sroa.016.0 = phi i32 [ 0, %6 ], [ %11, %10 ]
  switch i32 %.sroa.016.0, label %9 [
    i32 7, label %12
    i32 1, label %10
  ]

9:                                                ; preds = %8
  tail call fastcc void @_ZL15set_dhdl_outputP14gmx_enerdata_t34FreeEnergyPerturbationCouplingTypeRK8t_lambda(ptr noundef nonnull %0, i32 noundef %.sroa.016.0, ptr noundef nonnull align 8 dereferenceable(288) %3)
  br label %10

10:                                               ; preds = %8, %9
  %11 = add nuw nsw i32 %.sroa.016.0, 1
  br label %8

12:                                               ; preds = %8
  %13 = getelementptr inbounds i8, ptr %0, i64 616
  %14 = getelementptr inbounds i8, ptr %0, i64 504
  %15 = ptrtoint ptr %2 to i64
  %16 = ptrtoint ptr %1 to i64
  %17 = sub i64 %15, %16
  %18 = getelementptr inbounds i8, ptr %1, i64 %17
  tail call void @_ZN18ForeignLambdaTerms30finalizePotentialContributionsERKN3gmx16EnumerationArrayI34FreeEnergyPerturbationCouplingTypedLS2_7EEENS0_8ArrayRefIKfEERK8t_lambda(ptr noundef nonnull align 8 dereferenceable(65) %13, ptr noundef nonnull align 8 dereferenceable(56) %14, ptr %1, ptr %18, ptr noundef nonnull align 8 dereferenceable(288) %3)
  br label %19

19:                                               ; preds = %12, %4
  ret void
}